; Function Attrs: mustprogress uwtable
define noalias noundef nonnull ptr @llama_sampler_init_min_p(float noundef %0, i64 noundef %1) local_unnamed_addr #0 {
  %3 = tail call noalias noundef nonnull dereferenceable(16) ptr @_Znwm(i64 noundef 16) #30
  store float %0, ptr %3, align 16, !tbaa !64
  %4 = getelementptr inbounds nuw i8, ptr %3, i64 8
  store i64 %1, ptr %4, align 8, !tbaa !66
  %5 = tail call noalias noundef nonnull dereferenceable(16) ptr @_Znwm(i64 noundef 16) #30
  store ptr @_ZL21llama_sampler_min_p_i, ptr %5, align 16, !tbaa !3
  %6 = getelementptr inbounds nuw i8, ptr %5, i64 8
  store ptr %3, ptr %6, align 8, !tbaa !9
  ret ptr %5
}